; Function Attrs: mustprogress nofree norecurse nosync nounwind willreturn memory(argmem: read) uwtable
define { i64, i32 } @_ZNK4LIEF5MachO12BuildVersion5minosEv(ptr nocapture noundef nonnull readonly align 8 dereferenceable(112) %0) local_unnamed_addr #7 align 2 {
  %2 = getelementptr inbounds i8, ptr %0, i64 60
  %.sroa.01.0.copyload = load i64, ptr %2, align 4
  %.sroa.22.0..sroa_idx = getelementptr inbounds i8, ptr %0, i64 68
  %.sroa.22.0.copyload = load i32, ptr %.sroa.22.0..sroa_idx, align 4
  %.fca.0.insert = insertvalue { i64, i32 } poison, i64 %.sroa.01.0.copyload, 0
  %.fca.1.insert = insertvalue { i64, i32 } %.fca.0.insert, i32 %.sroa.22.0.copyload, 1
  ret { i64, i32 } %.fca.1.insert
}